; Function Attrs: nounwind sspstrong uwtable
define internal i32 @bdrv_get_cluster_size(ptr noundef %bs) #0 {
entry:
  %bdi = alloca %struct.BlockDriverInfo, align 8
  %call = call i32 @bdrv_co_get_info(ptr noundef %bs, ptr noundef nonnull %bdi) #15
  %cmp = icmp slt i32 %call, 0
  %0 = load i32, ptr %bdi, align 8
  %cmp1 = icmp eq i32 %0, 0
  %or.cond = select i1 %cmp, i1 true, i1 %cmp1
  br i1 %or.cond, label %if.then, label %return

if.then:                                          ; preds = %entry
  %bl = getelementptr inbounds nuw i8, ptr %bs, i64 16464
  %1 = load i32, ptr %bl, align 8
  br label %return

return:                                           ; preds = %entry, %if.then
  %retval.0 = phi i32 [ %1, %if.then ], [ %0, %entry ]
  ret i32 %retval.0
}